target datalayout = "e-m:e-p270:32:32-p271:32:32-p272:64:64-i64:64-i128:128-f80:128-n8:16:32:64-S128"
target triple = "x86_64-unknown-linux-gnu"

%struct.BdrvDirtyBitmap = type { ptr, ptr, i8, ptr, ptr, i64, i8, i32, i8, i8, i8, i8, %struct.anon }
%struct.anon = type { ptr, ptr }
%struct.BlockDriverState = type { i32, i8, i8, i8, i8, i8, ptr, ptr, ptr, %struct.anon.0, i8, [4096 x i8], [4096 x i8], [4096 x i8], [16 x i8], ptr, [4096 x i8], %struct.BlockLimits, i32, i32, i32, i32, [32 x i8], %union.anon, %union.anon.1, %union.anon.2, i32, [16 x %struct.anon.3], ptr, %struct.anon.4, ptr, ptr, %struct.anon.5, ptr, ptr, i32, ptr, i64, i64, %struct.QemuMutex, %struct.anon.6, %struct.Stat64, i32, i32, i32, i32, i32, i32, %struct.QemuMutex, %struct.anon.7, %struct.CoQueue, i8, i32, i8, %struct.CoMutex, ptr, ptr }
%struct.anon.0 = type { ptr }
%struct.BlockLimits = type { i32, i64, i32, i64, i32, i32, i32, i64, i32, i64, i64, i32, i8, i32, i32, i32, i32, i32, i32, i32 }
%union.anon = type { %struct.QTailQLink }
%struct.QTailQLink = type { ptr, ptr }
%union.anon.1 = type { %struct.QTailQLink }
%union.anon.2 = type { %struct.QTailQLink }
%struct.anon.3 = type { ptr }
%struct.anon.4 = type { ptr }
%struct.anon.5 = type { ptr }
%struct.anon.6 = type { ptr }
%struct.Stat64 = type { i64 }
%struct.QemuMutex = type { %union.pthread_mutex_t, i8 }
%union.pthread_mutex_t = type { %struct.__pthread_mutex_s }
%struct.__pthread_mutex_s = type { i32, i32, i32, i32, i32, i16, i16, %struct.__pthread_internal_list }
%struct.__pthread_internal_list = type { ptr, ptr }
%struct.anon.7 = type { ptr }
%struct.CoQueue = type { %struct.anon.8 }
%struct.anon.8 = type { ptr, ptr }
%struct.CoMutex = type { i32, ptr, %struct.anon.9, %struct.anon.9, i32, i32, ptr }
%struct.anon.9 = type { ptr }

@.str.1 = private unnamed_addr constant [29 x i8] c"../qemu/block/dirty-bitmap.c\00", align 1
@__func__.bdrv_dirty_bitmap_abdicate = private unnamed_addr constant [27 x i8] c"bdrv_dirty_bitmap_abdicate\00", align 1
@.str.12 = private unnamed_addr constant [58 x i8] c"Cannot relinquish control if there's no successor present\00", align 1
@__func__.bdrv_dirty_bitmaps_lock = private unnamed_addr constant [24 x i8] c"bdrv_dirty_bitmaps_lock\00", align 1
@qemu_mutex_lock_func = external global ptr, align 8

; Function Attrs: nounwind sspstrong uwtable
define internal void @bdrv_dirty_bitmaps_unlock(ptr noundef %bs) #0 {
entry:
  %bs.addr = alloca ptr, align 8
  store ptr %bs, ptr %bs.addr, align 8
  %0 = load ptr, ptr %bs.addr, align 8
  %dirty_bitmap_mutex = getelementptr inbounds %struct.BlockDriverState, ptr %0, i32 0, i32 39
  call void @qemu_mutex_unlock_impl(ptr noundef %dirty_bitmap_mutex, ptr noundef @.str.1, i32 noundef 71)
  ret void
}

; Function Attrs: nounwind sspstrong uwtable
define internal void @bdrv_dirty_bitmaps_lock(ptr noundef %bs) #0 {
entry:
  %bs.addr = alloca ptr, align 8
  %_f = alloca ptr, align 8
  %tmp = alloca ptr, align 8
  %atomic-temp = alloca ptr, align 8
  store ptr %bs, ptr %bs.addr, align 8
  br label %while.cond

while.cond:                                       ; preds = %do.end, %entry
  br i1 false, label %while.body, label %while.end

while.body:                                       ; preds = %while.cond
  br label %do.body

do.body:                                          ; preds = %while.body
  call void @g_assertion_message_expr(ptr noundef null, ptr noundef @.str.1, i32 noundef 66, ptr noundef @__func__.bdrv_dirty_bitmaps_lock, ptr noundef null) #10
  unreachable

do.end:                                           ; No predecessors!
  br label %while.cond

while.end:                                        ; preds = %while.cond
  %0 = load atomic i64, ptr @qemu_mutex_lock_func monotonic, align 8
  store i64 %0, ptr %atomic-temp, align 8
  %1 = load ptr, ptr %atomic-temp, align 8
  store ptr %1, ptr %tmp, align 8
  %2 = load ptr, ptr %tmp, align 8
  store ptr %2, ptr %_f, align 8
  %3 = load ptr, ptr %_f, align 8
  %4 = load ptr, ptr %bs.addr, align 8
  %dirty_bitmap_mutex = getelementptr inbounds %struct.BlockDriverState, ptr %4, i32 0, i32 39
  call void %3(ptr noundef %dirty_bitmap_mutex, ptr noundef @.str.1, i32 noundef 66)
  ret void
}

; Function Attrs: nounwind sspstrong uwtable
define dso_local void @bdrv_release_dirty_bitmap(ptr noundef %bitmap) #0 {
entry:
  %bitmap.addr = alloca ptr, align 8
  %bs = alloca ptr, align 8
  store ptr %bitmap, ptr %bitmap.addr, align 8
  %0 = load ptr, ptr %bitmap.addr, align 8
  %bs1 = getelementptr inbounds %struct.BdrvDirtyBitmap, ptr %0, i32 0, i32 0
  %1 = load ptr, ptr %bs1, align 8
  store ptr %1, ptr %bs, align 8
  %2 = load ptr, ptr %bs, align 8
  call void @bdrv_dirty_bitmaps_lock(ptr noundef %2)
  %3 = load ptr, ptr %bitmap.addr, align 8
  call void @bdrv_release_dirty_bitmap_locked(ptr noundef %3)
  %4 = load ptr, ptr %bs, align 8
  call void @bdrv_dirty_bitmaps_unlock(ptr noundef %4)
  ret void
}

; Function Attrs: nounwind sspstrong uwtable
define dso_local ptr @bdrv_dirty_bitmap_abdicate(ptr noundef %bitmap, ptr noundef %errp) #0 {
entry:
  %retval = alloca ptr, align 8
  %bitmap.addr = alloca ptr, align 8
  %errp.addr = alloca ptr, align 8
  %name = alloca ptr, align 8
  %successor = alloca ptr, align 8
  store ptr %bitmap, ptr %bitmap.addr, align 8
  store ptr %errp, ptr %errp.addr, align 8
  %0 = load ptr, ptr %bitmap.addr, align 8
  %successor1 = getelementptr inbounds %struct.BdrvDirtyBitmap, ptr %0, i32 0, i32 3
  %1 = load ptr, ptr %successor1, align 8
  store ptr %1, ptr %successor, align 8
  %2 = load ptr, ptr %successor, align 8
  %cmp = icmp eq ptr %2, null
  br i1 %cmp, label %if.then, label %if.end

if.then:                                          ; preds = %entry
  %3 = load ptr, ptr %errp.addr, align 8
  call void (ptr, ptr, i32, ptr, ptr, ...) @error_setg_internal(ptr noundef %3, ptr noundef @.str.1, i32 noundef 281, ptr noundef @__func__.bdrv_dirty_bitmap_abdicate, ptr noundef @.str.12)
  store ptr null, ptr %retval, align 8
  br label %return

if.end:                                           ; preds = %entry
  %4 = load ptr, ptr %bitmap.addr, align 8
  %name2 = getelementptr inbounds %struct.BdrvDirtyBitmap, ptr %4, i32 0, i32 4
  %5 = load ptr, ptr %name2, align 8
  store ptr %5, ptr %name, align 8
  %6 = load ptr, ptr %bitmap.addr, align 8
  %name3 = getelementptr inbounds %struct.BdrvDirtyBitmap, ptr %6, i32 0, i32 4
  store ptr null, ptr %name3, align 8
  %7 = load ptr, ptr %name, align 8
  %8 = load ptr, ptr %successor, align 8
  %name4 = getelementptr inbounds %struct.BdrvDirtyBitmap, ptr %8, i32 0, i32 4
  store ptr %7, ptr %name4, align 8
  %9 = load ptr, ptr %bitmap.addr, align 8
  %successor5 = getelementptr inbounds %struct.BdrvDirtyBitmap, ptr %9, i32 0, i32 3
  store ptr null, ptr %successor5, align 8
  %10 = load ptr, ptr %bitmap.addr, align 8
  %persistent = getelementptr inbounds %struct.BdrvDirtyBitmap, ptr %10, i32 0, i32 9
  %11 = load i8, ptr %persistent, align 1
  %tobool = trunc i8 %11 to i1
  %12 = load ptr, ptr %successor, align 8
  %persistent6 = getelementptr inbounds %struct.BdrvDirtyBitmap, ptr %12, i32 0, i32 9
  %frombool = zext i1 %tobool to i8
  store i8 %frombool, ptr %persistent6, align 1
  %13 = load ptr, ptr %bitmap.addr, align 8
  %persistent7 = getelementptr inbounds %struct.BdrvDirtyBitmap, ptr %13, i32 0, i32 9
  store i8 0, ptr %persistent7, align 1
  %14 = load ptr, ptr %bitmap.addr, align 8
  %busy = getelementptr inbounds %struct.BdrvDirtyBitmap, ptr %14, i32 0, i32 2
  store i8 0, ptr %busy, align 8
  %15 = load ptr, ptr %bitmap.addr, align 8
  call void @bdrv_release_dirty_bitmap(ptr noundef %15)
  %16 = load ptr, ptr %successor, align 8
  store ptr %16, ptr %retval, align 8
  br label %return

return:                                           ; preds = %if.end, %if.then
  %17 = load ptr, ptr %retval, align 8
  ret ptr %17
}