; Function Attrs: nounwind sspstrong uwtable
define dso_local ptr @bdrv_dirty_bitmap_abdicate(ptr noundef %bitmap, ptr noundef %errp) local_unnamed_addr #0 {
entry:
  %successor1 = getelementptr inbounds nuw i8, ptr %bitmap, i64 24
  %0 = load ptr, ptr %successor1, align 8
  %cmp = icmp eq ptr %0, null
  br i1 %cmp, label %if.then, label %if.end

if.then:                                          ; preds = %entry
  tail call void (ptr, ptr, i32, ptr, ptr, ...) @error_setg_internal(ptr noundef %errp, ptr noundef nonnull @.str.1, i32 noundef 281, ptr noundef nonnull @__func__.bdrv_dirty_bitmap_abdicate, ptr noundef nonnull @.str.12) #14
  br label %return

if.end:                                           ; preds = %entry
  %name2 = getelementptr inbounds nuw i8, ptr %bitmap, i64 32
  %1 = load ptr, ptr %name2, align 8
  store ptr null, ptr %name2, align 8
  %name4 = getelementptr inbounds nuw i8, ptr %0, i64 32
  store ptr %1, ptr %name4, align 8
  store ptr null, ptr %successor1, align 8
  %persistent = getelementptr inbounds nuw i8, ptr %bitmap, i64 57
  %2 = load i8, ptr %persistent, align 1
  %persistent6 = getelementptr inbounds nuw i8, ptr %0, i64 57
  %frombool = and i8 %2, 1
  store i8 %frombool, ptr %persistent6, align 1
  store i8 0, ptr %persistent, align 1
  %busy = getelementptr inbounds nuw i8, ptr %bitmap, i64 16
  store i8 0, ptr %busy, align 8
  %3 = load ptr, ptr %bitmap, align 8
  %4 = load atomic i64, ptr @qemu_mutex_lock_func monotonic, align 8
  %5 = inttoptr i64 %4 to ptr
  %dirty_bitmap_mutex.i.i = getelementptr inbounds nuw i8, ptr %3, i64 16904
  tail call void %5(ptr noundef nonnull %dirty_bitmap_mutex.i.i, ptr noundef nonnull @.str.1, i32 noundef 66) #14
  tail call fastcc void @bdrv_release_dirty_bitmap_locked(ptr noundef nonnull %bitmap)
  tail call void @qemu_mutex_unlock_impl(ptr noundef nonnull %dirty_bitmap_mutex.i.i, ptr noundef nonnull @.str.1, i32 noundef 71) #14
  br label %return

return:                                           ; preds = %if.end, %if.then
  ret ptr %0
}